target datalayout = "e-m:e-p270:32:32-p271:32:32-p272:64:64-i64:64-i128:128-f80:128-n8:16:32:64-S128"
target triple = "x86_64-pc-linux-gnu"

%struct.timeval = type { i64, i64 }
%struct.work_queue_tag = type { ptr, ptr, i32, i32 }
%struct.work_item_tag = type { ptr, ptr, %struct.timeval }

@.str.27 = private unnamed_addr constant [46 x i8] c" min_wait: %.6f max_wait: %.6f avg_wait: %.6f\00", align 1
@.str.28 = private unnamed_addr constant [26 x i8] c" (INVALID timestamps: %u)\00", align 1
@.str.29 = private unnamed_addr constant [19 x i8] c" (ERROR: %u != %u)\00", align 1

; Function Attrs: nounwind uwtable
define internal void @print_queue(i32 noundef %0, ptr noundef %1, ptr noundef %2) #0 {
  %4 = alloca i32, align 4
  %5 = alloca ptr, align 8
  %6 = alloca ptr, align 8
  %7 = alloca i64, align 8
  %8 = alloca i64, align 8
  %9 = alloca i64, align 8
  %10 = alloca i32, align 4
  %11 = alloca i32, align 4
  %12 = alloca ptr, align 8
  %13 = alloca i64, align 8
  store i32 %0, ptr %4, align 4
  store ptr %1, ptr %5, align 8
  store ptr %2, ptr %6, align 8
  store i64 9223372036854775807, ptr %7, align 8
  store i64 0, ptr %8, align 8
  store i64 0, ptr %9, align 8
  store i32 0, ptr %10, align 4
  store i32 0, ptr %11, align 4
  %14 = load ptr, ptr %5, align 8
  %15 = getelementptr inbounds %struct.work_queue_tag, ptr %14, i32 0, i32 0
  %16 = load ptr, ptr %15, align 8
  %17 = icmp ne ptr %16, null
  br i1 %17, label %19, label %18

18:                                               ; preds = %3
  br label %111

19:                                               ; preds = %3
  %20 = load ptr, ptr %5, align 8
  %21 = getelementptr inbounds %struct.work_queue_tag, ptr %20, i32 0, i32 0
  %22 = load ptr, ptr %21, align 8
  store ptr %22, ptr %12, align 8
  br label %23

23:                                               ; preds = %69, %19
  %24 = load ptr, ptr %12, align 8
  %25 = icmp ne ptr %24, null
  br i1 %25, label %26, label %73

26:                                               ; preds = %23
  %27 = load ptr, ptr %6, align 8
  %28 = getelementptr inbounds %struct.timeval, ptr %27, i32 0, i32 1
  %29 = load i64, ptr %28, align 8
  %30 = load ptr, ptr %12, align 8
  %31 = getelementptr inbounds %struct.work_item_tag, ptr %30, i32 0, i32 2
  %32 = getelementptr inbounds %struct.timeval, ptr %31, i32 0, i32 1
  %33 = load i64, ptr %32, align 8
  %34 = sub nsw i64 %29, %33
  store i64 %34, ptr %13, align 8
  %35 = load ptr, ptr %6, align 8
  %36 = getelementptr inbounds %struct.timeval, ptr %35, i32 0, i32 0
  %37 = load i64, ptr %36, align 8
  %38 = load ptr, ptr %12, align 8
  %39 = getelementptr inbounds %struct.work_item_tag, ptr %38, i32 0, i32 2
  %40 = getelementptr inbounds %struct.timeval, ptr %39, i32 0, i32 0
  %41 = load i64, ptr %40, align 8
  %42 = sub nsw i64 %37, %41
  %43 = mul nsw i64 %42, 1000000
  %44 = load i64, ptr %13, align 8
  %45 = add nsw i64 %44, %43
  store i64 %45, ptr %13, align 8
  %46 = load i64, ptr %13, align 8
  %47 = icmp slt i64 %46, 0
  br i1 %47, label %48, label %51

48:                                               ; preds = %26
  %49 = load i32, ptr %10, align 4
  %50 = add i32 %49, 1
  store i32 %50, ptr %10, align 4
  br label %69

51:                                               ; preds = %26
  %52 = load i64, ptr %13, align 8
  %53 = load i64, ptr %8, align 8
  %54 = icmp sgt i64 %52, %53
  br i1 %54, label %55, label %57

55:                                               ; preds = %51
  %56 = load i64, ptr %13, align 8
  store i64 %56, ptr %8, align 8
  br label %57

57:                                               ; preds = %55, %51
  %58 = load i64, ptr %13, align 8
  %59 = load i64, ptr %7, align 8
  %60 = icmp slt i64 %58, %59
  br i1 %60, label %61, label %63

61:                                               ; preds = %57
  %62 = load i64, ptr %13, align 8
  store i64 %62, ptr %7, align 8
  br label %63

63:                                               ; preds = %61, %57
  %64 = load i64, ptr %13, align 8
  %65 = load i64, ptr %9, align 8
  %66 = add nsw i64 %65, %64
  store i64 %66, ptr %9, align 8
  %67 = load i32, ptr %11, align 4
  %68 = add i32 %67, 1
  store i32 %68, ptr %11, align 4
  br label %69

69:                                               ; preds = %63, %48
  %70 = load ptr, ptr %12, align 8
  %71 = getelementptr inbounds %struct.work_item_tag, ptr %70, i32 0, i32 0
  %72 = load ptr, ptr %71, align 8
  store ptr %72, ptr %12, align 8
  br label %23

73:                                               ; preds = %23
  %74 = load i32, ptr %4, align 4
  %75 = load i64, ptr %7, align 8
  %76 = sitofp i64 %75 to double
  %77 = fdiv double %76, 1.000000e+06
  %78 = load i64, ptr %8, align 8
  %79 = sitofp i64 %78 to double
  %80 = fdiv double %79, 1.000000e+06
  %81 = load i64, ptr %9, align 8
  %82 = sitofp i64 %81 to double
  %83 = load i32, ptr %11, align 4
  %84 = uitofp i32 %83 to double
  %85 = fmul double 1.000000e+06, %84
  %86 = fdiv double %82, %85
  %87 = call i32 (i32, ptr, ...) @mdprintf(i32 noundef %74, ptr noundef @.str.27, double noundef %77, double noundef %80, double noundef %86)
  %88 = load i32, ptr %10, align 4
  %89 = icmp ne i32 %88, 0
  br i1 %89, label %90, label %94

90:                                               ; preds = %73
  %91 = load i32, ptr %4, align 4
  %92 = load i32, ptr %10, align 4
  %93 = call i32 (i32, ptr, ...) @mdprintf(i32 noundef %91, ptr noundef @.str.28, i32 noundef %92)
  br label %94

94:                                               ; preds = %90, %73
  %95 = load i32, ptr %11, align 4
  %96 = load i32, ptr %10, align 4
  %97 = add i32 %95, %96
  %98 = load ptr, ptr %5, align 8
  %99 = getelementptr inbounds %struct.work_queue_tag, ptr %98, i32 0, i32 2
  %100 = load i32, ptr %99, align 8
  %101 = icmp ne i32 %97, %100
  br i1 %101, label %102, label %111

102:                                              ; preds = %94
  %103 = load i32, ptr %4, align 4
  %104 = load i32, ptr %11, align 4
  %105 = load i32, ptr %10, align 4
  %106 = add i32 %104, %105
  %107 = load ptr, ptr %5, align 8
  %108 = getelementptr inbounds %struct.work_queue_tag, ptr %107, i32 0, i32 2
  %109 = load i32, ptr %108, align 8
  %110 = call i32 (i32, ptr, ...) @mdprintf(i32 noundef %103, ptr noundef @.str.29, i32 noundef %106, i32 noundef %109)
  br label %111

111:                                              ; preds = %102, %94, %18
  ret void
}