; Function Attrs: nounwind uwtable
define internal fastcc void @print_queue(i32 noundef %0, ptr nocapture noundef readonly %1, i64 %.0.val, i64 %.8.val) unnamed_addr #0 {
  %3 = load ptr, ptr %1, align 8
  %.not = icmp eq ptr %3, null
  br i1 %.not, label %38, label %.preheader

.preheader:                                       ; preds = %2, %18
  %.06 = phi ptr [ %19, %18 ], [ %3, %2 ]
  %.0345 = phi i32 [ %.1, %18 ], [ 0, %2 ]
  %.0354 = phi i32 [ %.136, %18 ], [ 0, %2 ]
  %.0373 = phi i64 [ %.138, %18 ], [ 0, %2 ]
  %.0392 = phi i64 [ %.2, %18 ], [ 0, %2 ]
  %.0411 = phi i64 [ %.243, %18 ], [ 9223372036854775807, %2 ]
  %4 = getelementptr inbounds i8, ptr %.06, i64 16
  %5 = getelementptr inbounds i8, ptr %.06, i64 24
  %6 = load i64, ptr %5, align 8
  %7 = sub nsw i64 %.8.val, %6
  %8 = load i64, ptr %4, align 8
  %9 = sub nsw i64 %.0.val, %8
  %10 = mul nsw i64 %9, 1000000
  %11 = add nsw i64 %10, %7
  %12 = icmp slt i64 %11, 0
  br i1 %12, label %13, label %15

13:                                               ; preds = %.preheader
  %14 = add i32 %.0354, 1
  br label %18

15:                                               ; preds = %.preheader
  %spec.select = tail call i64 @llvm.smax.i64(i64 %11, i64 %.0392)
  %.142 = tail call i64 @llvm.smin.i64(i64 %11, i64 %.0411)
  %16 = add nuw nsw i64 %11, %.0373
  %17 = add i32 %.0345, 1
  br label %18

18:                                               ; preds = %15, %13
  %.243 = phi i64 [ %.0411, %13 ], [ %.142, %15 ]
  %.2 = phi i64 [ %.0392, %13 ], [ %spec.select, %15 ]
  %.138 = phi i64 [ %.0373, %13 ], [ %16, %15 ]
  %.136 = phi i32 [ %14, %13 ], [ %.0354, %15 ]
  %.1 = phi i32 [ %.0345, %13 ], [ %17, %15 ]
  %19 = load ptr, ptr %.06, align 8
  %.not48 = icmp eq ptr %19, null
  br i1 %.not48, label %20, label %.preheader

20:                                               ; preds = %18
  %21 = sitofp i64 %.243 to double
  %22 = fdiv double %21, 1.000000e+06
  %23 = sitofp i64 %.2 to double
  %24 = fdiv double %23, 1.000000e+06
  %25 = sitofp i64 %.138 to double
  %26 = uitofp i32 %.1 to double
  %27 = fmul double %26, 1.000000e+06
  %28 = fdiv double %25, %27
  %29 = tail call i32 (i32, ptr, ...) @mdprintf(i32 noundef %0, ptr noundef nonnull @.str.27, double noundef %22, double noundef %24, double noundef %28) #12
  %.not49 = icmp eq i32 %.136, 0
  br i1 %.not49, label %32, label %30

30:                                               ; preds = %20
  %31 = tail call i32 (i32, ptr, ...) @mdprintf(i32 noundef %0, ptr noundef nonnull @.str.28, i32 noundef %.136) #12
  br label %32

32:                                               ; preds = %30, %20
  %33 = add i32 %.1, %.136
  %34 = getelementptr inbounds i8, ptr %1, i64 16
  %35 = load i32, ptr %34, align 8
  %.not50 = icmp eq i32 %33, %35
  br i1 %.not50, label %38, label %36

36:                                               ; preds = %32
  %37 = tail call i32 (i32, ptr, ...) @mdprintf(i32 noundef %0, ptr noundef nonnull @.str.29, i32 noundef %33, i32 noundef %35) #12
  br label %38

38:                                               ; preds = %2, %36, %32
  ret void
}